; ModuleID = '7/1098.c'
source_filename = "7/1098.c"
target datalayout = "e-m:e-p270:32:32-p271:32:32-p272:64:64-i64:64-f80:128-n8:16:32:64-S128"
target triple = "x86_64-pc-linux-gnu"

@.str = private unnamed_addr constant [7 x i8] c"%s%s%s\00", align 1
@.str.1 = private unnamed_addr constant [3 x i8] c"%c\00", align 1
@.str.2 = private unnamed_addr constant [3 x i8] c"%s\00", align 1

; Function Attrs: noinline nounwind uwtable
define dso_local i32 @main(i32 %0, i8** %1) #0 {
  %3 = alloca i32, align 4
  %4 = alloca i32, align 4
  %5 = alloca i8**, align 8
  %6 = alloca i32, align 4
  %7 = alloca i32, align 4
  %8 = alloca i32, align 4
  %9 = alloca [100 x i8], align 16
  %10 = alloca [100 x i8], align 16
  %11 = alloca [100 x i8], align 16
  %12 = alloca i32, align 4
  %13 = alloca i32, align 4
  %14 = alloca i32, align 4
  store i32 0, i32* %3, align 4
  store i32 %0, i32* %4, align 4
  store i8** %1, i8*** %5, align 8
  store i32 0, i32* %8, align 4
  %15 = getelementptr inbounds [100 x i8], [100 x i8]* %9, i64 0, i64 0
  %16 = getelementptr inbounds [100 x i8], [100 x i8]* %10, i64 0, i64 0
  %17 = getelementptr inbounds [100 x i8], [100 x i8]* %11, i64 0, i64 0
  %18 = call i32 (i8*, ...) @__isoc99_scanf(i8* getelementptr inbounds ([7 x i8], [7 x i8]* @.str, i64 0, i64 0), i8* %15, i8* %16, i8* %17)
  store i32 0, i32* %6, align 4
  br label %19

19:                                               ; preds = %102, %2
  %20 = load i32, i32* %6, align 4
  %21 = icmp slt i32 %20, 100
  br i1 %21, label %22, label %105

22:                                               ; preds = %19
  %23 = load i32, i32* %6, align 4
  %24 = sext i32 %23 to i64
  %25 = getelementptr inbounds [100 x i8], [100 x i8]* %9, i64 0, i64 %24
  %26 = load i8, i8* %25, align 1
  %27 = sext i8 %26 to i32
  %28 = getelementptr inbounds [100 x i8], [100 x i8]* %10, i64 0, i64 0
  %29 = load i8, i8* %28, align 16
  %30 = sext i8 %29 to i32
  %31 = icmp eq i32 %27, %30
  br i1 %31, label %32, label %88

32:                                               ; preds = %22
  %33 = getelementptr inbounds [100 x i8], [100 x i8]* %9, i64 0, i64 0
  %34 = getelementptr inbounds [100 x i8], [100 x i8]* %10, i64 0, i64 0
  %35 = load i32, i32* %6, align 4
  %36 = call i32 @right(i8* %33, i8* %34, i32 %35)
  %37 = icmp ne i32 %36, 0
  br i1 %37, label %38, label %87

38:                                               ; preds = %32
  store i32 0, i32* %7, align 4
  br label %39

39:                                               ; preds = %50, %38
  %40 = load i32, i32* %7, align 4
  %41 = load i32, i32* %6, align 4
  %42 = icmp slt i32 %40, %41
  br i1 %42, label %43, label %53

43:                                               ; preds = %39
  %44 = load i32, i32* %7, align 4
  %45 = sext i32 %44 to i64
  %46 = getelementptr inbounds [100 x i8], [100 x i8]* %9, i64 0, i64 %45
  %47 = load i8, i8* %46, align 1
  %48 = sext i8 %47 to i32
  %49 = call i32 (i8*, ...) @printf(i8* getelementptr inbounds ([3 x i8], [3 x i8]* @.str.1, i64 0, i64 0), i32 %48)
  br label %50

50:                                               ; preds = %43
  %51 = load i32, i32* %7, align 4
  %52 = add nsw i32 %51, 1
  store i32 %52, i32* %7, align 4
  br label %39

53:                                               ; preds = %39
  %54 = getelementptr inbounds [100 x i8], [100 x i8]* %11, i64 0, i64 0
  %55 = call i32 (i8*, ...) @printf(i8* getelementptr inbounds ([3 x i8], [3 x i8]* @.str.2, i64 0, i64 0), i8* %54)
  %56 = getelementptr inbounds [100 x i8], [100 x i8]* %9, i64 0, i64 0
  %57 = call i64 @strlen(i8* %56) #3
  %58 = trunc i64 %57 to i32
  store i32 %58, i32* %12, align 4
  %59 = getelementptr inbounds [100 x i8], [100 x i8]* %10, i64 0, i64 0
  %60 = call i64 @strlen(i8* %59) #3
  %61 = trunc i64 %60 to i32
  store i32 %61, i32* %13, align 4
  %62 = getelementptr inbounds [100 x i8], [100 x i8]* %11, i64 0, i64 0
  %63 = call i64 @strlen(i8* %62) #3
  %64 = trunc i64 %63 to i32
  store i32 %64, i32* %14, align 4
  %65 = load i32, i32* %7, align 4
  %66 = load i32, i32* %13, align 4
  %67 = add nsw i32 %65, %66
  store i32 %67, i32* %7, align 4
  br label %68

68:                                               ; preds = %83, %53
  %69 = load i32, i32* %7, align 4
  %70 = load i32, i32* %12, align 4
  %71 = load i32, i32* %13, align 4
  %72 = sub nsw i32 %70, %71
  %73 = load i32, i32* %14, align 4
  %74 = add nsw i32 %72, %73
  %75 = icmp slt i32 %69, %74
  br i1 %75, label %76, label %86

76:                                               ; preds = %68
  %77 = load i32, i32* %7, align 4
  %78 = sext i32 %77 to i64
  %79 = getelementptr inbounds [100 x i8], [100 x i8]* %9, i64 0, i64 %78
  %80 = load i8, i8* %79, align 1
  %81 = sext i8 %80 to i32
  %82 = call i32 (i8*, ...) @printf(i8* getelementptr inbounds ([3 x i8], [3 x i8]* @.str.1, i64 0, i64 0), i32 %81)
  br label %83

83:                                               ; preds = %76
  %84 = load i32, i32* %7, align 4
  %85 = add nsw i32 %84, 1
  store i32 %85, i32* %7, align 4
  br label %68

86:                                               ; preds = %68
  br label %105

87:                                               ; preds = %32
  br label %88

88:                                               ; preds = %87, %22
  %89 = load i32, i32* %8, align 4
  %90 = icmp eq i32 %89, 1
  br i1 %90, label %91, label %92

91:                                               ; preds = %88
  br label %105

92:                                               ; preds = %88
  %93 = load i32, i32* %6, align 4
  %94 = sext i32 %93 to i64
  %95 = getelementptr inbounds [100 x i8], [100 x i8]* %9, i64 0, i64 0
  %96 = call i64 @strlen(i8* %95) #3
  %97 = icmp eq i64 %94, %96
  br i1 %97, label %98, label %101

98:                                               ; preds = %92
  %99 = getelementptr inbounds [100 x i8], [100 x i8]* %9, i64 0, i64 0
  %100 = call i32 (i8*, ...) @printf(i8* getelementptr inbounds ([3 x i8], [3 x i8]* @.str.2, i64 0, i64 0), i8* %99)
  br label %101

101:                                              ; preds = %98, %92
  br label %102

102:                                              ; preds = %101
  %103 = load i32, i32* %6, align 4
  %104 = add nsw i32 %103, 1
  store i32 %104, i32* %6, align 4
  br label %19

105:                                              ; preds = %91, %86, %19
  ret i32 0
}

declare dso_local i32 @__isoc99_scanf(i8*, ...) #1

; Function Attrs: noinline nounwind uwtable
define dso_local i32 @right(i8* %0, i8* %1, i32 %2) #0 {
  %4 = alloca i32, align 4
  %5 = alloca i8*, align 8
  %6 = alloca i8*, align 8
  %7 = alloca i32, align 4
  %8 = alloca i32, align 4
  %9 = alloca i32, align 4
  store i8* %0, i8** %5, align 8
  store i8* %1, i8** %6, align 8
  store i32 %2, i32* %7, align 4
  %10 = load i8*, i8** %6, align 8
  %11 = call i64 @strlen(i8* %10) #3
  %12 = trunc i64 %11 to i32
  store i32 %12, i32* %8, align 4
  store i32 0, i32* %9, align 4
  br label %13

13:                                               ; preds = %35, %3
  %14 = load i32, i32* %9, align 4
  %15 = load i32, i32* %8, align 4
  %16 = icmp slt i32 %14, %15
  br i1 %16, label %17, label %38

17:                                               ; preds = %13
  %18 = load i8*, i8** %5, align 8
  %19 = load i32, i32* %7, align 4
  %20 = load i32, i32* %9, align 4
  %21 = add nsw i32 %19, %20
  %22 = sext i32 %21 to i64
  %23 = getelementptr inbounds i8, i8* %18, i64 %22
  %24 = load i8, i8* %23, align 1
  %25 = sext i8 %24 to i32
  %26 = load i8*, i8** %6, align 8
  %27 = load i32, i32* %9, align 4
  %28 = sext i32 %27 to i64
  %29 = getelementptr inbounds i8, i8* %26, i64 %28
  %30 = load i8, i8* %29, align 1
  %31 = sext i8 %30 to i32
  %32 = icmp ne i32 %25, %31
  br i1 %32, label %33, label %34

33:                                               ; preds = %17
  store i32 0, i32* %4, align 4
  br label %39

34:                                               ; preds = %17
  br label %35

35:                                               ; preds = %34
  %36 = load i32, i32* %9, align 4
  %37 = add nsw i32 %36, 1
  store i32 %37, i32* %9, align 4
  br label %13

38:                                               ; preds = %13
  store i32 1, i32* %4, align 4
  br label %39

39:                                               ; preds = %38, %33
  %40 = load i32, i32* %4, align 4
  ret i32 %40
}

declare dso_local i32 @printf(i8*, ...) #1

; Function Attrs: nounwind readonly
declare dso_local i64 @strlen(i8*) #2


!llvm.module.flags = !{!0}
!llvm.ident = !{!1}

!0 = !{i32 1, !"wchar_size", i32 4}
!1 = !{!"clang version 10.0.0-4ubuntu1 "}
